; Function Attrs: mustprogress uwtable
define void @_ZN9grpc_core29AwsExternalAccountCredentials12AwsFetchBody8ShutdownEv(ptr noundef nonnull align 16 dereferenceable(272) %0) unnamed_addr #3 align 2 personality ptr @__gxx_personality_v0 {
  %2 = getelementptr inbounds nuw i8, ptr %0, i64 64
  tail call void @_ZN4absl12lts_202407225Mutex4LockEv(ptr noundef nonnull align 8 dereferenceable(8) %2)
  %3 = getelementptr inbounds nuw i8, ptr %0, i64 72
  %4 = load ptr, ptr %3, align 8, !tbaa !57
  store ptr null, ptr %3, align 8, !tbaa !57
  %.not.i.i = icmp eq ptr %4, null
  br i1 %.not.i.i, label %_ZNSt10unique_ptrIN9grpc_core26ExternalAccountCredentials9FetchBodyENS0_16OrphanableDeleteEE5resetEPS2_.exit, label %5

5:                                                ; preds = %1
  %6 = load ptr, ptr %4, align 16, !tbaa !12
  %7 = load ptr, ptr %6, align 8
  invoke void %7(ptr noundef nonnull align 16 dereferenceable(48) %4)
          to label %_ZNSt10unique_ptrIN9grpc_core26ExternalAccountCredentials9FetchBodyENS0_16OrphanableDeleteEE5resetEPS2_.exit unwind label %8

8:                                                ; preds = %5
  %9 = landingpad { ptr, i32 }
          catch ptr null
  %10 = extractvalue { ptr, i32 } %9, 0
  tail call void @__clang_call_terminate(ptr %10) #37
  unreachable

_ZNSt10unique_ptrIN9grpc_core26ExternalAccountCredentials9FetchBodyENS0_16OrphanableDeleteEE5resetEPS2_.exit: ; preds = %1, %5
  invoke void @_ZN4absl12lts_202407225Mutex6UnlockEv(ptr noundef nonnull align 8 dereferenceable(8) %2)
          to label %_ZN4absl12lts_202407229MutexLockD2Ev.exit unwind label %11

11:                                               ; preds = %_ZNSt10unique_ptrIN9grpc_core26ExternalAccountCredentials9FetchBodyENS0_16OrphanableDeleteEE5resetEPS2_.exit
  %12 = landingpad { ptr, i32 }
          catch ptr null
  %13 = extractvalue { ptr, i32 } %12, 0
  tail call void @__clang_call_terminate(ptr %13) #37
  unreachable

_ZN4absl12lts_202407229MutexLockD2Ev.exit:        ; preds = %_ZNSt10unique_ptrIN9grpc_core26ExternalAccountCredentials9FetchBodyENS0_16OrphanableDeleteEE5resetEPS2_.exit
  ret void
}